target datalayout = "e-m:e-p270:32:32-p271:32:32-p272:64:64-i64:64-i128:128-f80:128-n8:16:32:64-S128"
target triple = "x86_64-pc-linux-gnu"

%struct.JsonLexContext = type { ptr, i64, i32, ptr, ptr, ptr, i8, i32, i32, i32, i32, ptr, ptr, ptr, i8, ptr, ptr }
%struct.JHashState = type { ptr, ptr, ptr, ptr, ptr, i32 }

@.str = private unnamed_addr constant [27 x i8] c"cannot call %s on a scalar\00", align 1
@.str.2 = private unnamed_addr constant [12 x i8] c"jsonfuncs.c\00", align 1
@__func__.hash_scalar = private unnamed_addr constant [12 x i8] c"hash_scalar\00", align 1

; Function Attrs: nounwind uwtable
define internal i32 @hash_scalar(ptr noundef %0, ptr noundef %1, i32 noundef %2) #0 {
  %4 = alloca ptr, align 8
  %5 = alloca ptr, align 8
  %6 = alloca i32, align 4
  %7 = alloca ptr, align 8
  store ptr %0, ptr %4, align 8
  store ptr %1, ptr %5, align 8
  store i32 %2, ptr %6, align 4
  call void @llvm.lifetime.start.p0(i64 8, ptr %7) #10
  %8 = load ptr, ptr %4, align 8
  store ptr %8, ptr %7, align 8
  %9 = load ptr, ptr %7, align 8
  %10 = getelementptr inbounds nuw %struct.JHashState, ptr %9, i32 0, i32 0
  %11 = load ptr, ptr %10, align 8
  %12 = getelementptr inbounds nuw %struct.JsonLexContext, ptr %11, i32 0, i32 8
  %13 = load i32, ptr %12, align 8
  %14 = icmp eq i32 %13, 0
  br i1 %14, label %15, label %30

15:                                               ; preds = %3
  br label %16

16:                                               ; preds = %15
  br i1 true, label %17, label %19

17:                                               ; preds = %16
  %18 = call zeroext i1 @errstart_cold(i32 noundef 21, ptr noundef null) #11
  br i1 %18, label %21, label %27

19:                                               ; preds = %16
  %20 = call zeroext i1 @errstart(i32 noundef 21, ptr noundef null)
  br i1 %20, label %21, label %27

21:                                               ; preds = %19, %17
  %22 = call i32 @errcode(i32 noundef 50856066)
  %23 = load ptr, ptr %7, align 8
  %24 = getelementptr inbounds nuw %struct.JHashState, ptr %23, i32 0, i32 1
  %25 = load ptr, ptr %24, align 8
  %26 = call i32 (ptr, ...) @errmsg(ptr noundef @.str, ptr noundef %25)
  call void @errfinish(ptr noundef @.str.2, i32 noundef 3949, ptr noundef @__func__.hash_scalar)
  br label %27

27:                                               ; preds = %21, %19, %17
  unreachable

28:                                               ; No predecessors!
  br label %29

29:                                               ; preds = %28
  br label %30

30:                                               ; preds = %29, %3
  %31 = load ptr, ptr %7, align 8
  %32 = getelementptr inbounds nuw %struct.JHashState, ptr %31, i32 0, i32 0
  %33 = load ptr, ptr %32, align 8
  %34 = getelementptr inbounds nuw %struct.JsonLexContext, ptr %33, i32 0, i32 8
  %35 = load i32, ptr %34, align 8
  %36 = icmp eq i32 %35, 1
  br i1 %36, label %37, label %41

37:                                               ; preds = %30
  %38 = load ptr, ptr %5, align 8
  %39 = load ptr, ptr %7, align 8
  %40 = getelementptr inbounds nuw %struct.JHashState, ptr %39, i32 0, i32 3
  store ptr %38, ptr %40, align 8
  br label %41

41:                                               ; preds = %37, %30
  call void @llvm.lifetime.end.p0(i64 8, ptr %7) #10
  ret i32 0
}