; Function Attrs: nounwind uwtable
define internal noundef i32 @hash_scalar(ptr noundef captures(none) %0, ptr noundef %1, i32 %2) #0 {
  %4 = load ptr, ptr %0, align 8
  %5 = getelementptr inbounds nuw i8, ptr %4, i64 56
  %6 = load i32, ptr %5, align 8
  switch i32 %6, label %15 [
    i32 0, label %7
    i32 1, label %13
  ]

7:                                                ; preds = %3
  %8 = tail call zeroext i1 @errstart_cold(i32 noundef 21, ptr noundef null) #16
  tail call void @llvm.assume(i1 %8)
  %9 = tail call i32 @errcode(i32 noundef 50856066) #15
  %10 = getelementptr inbounds nuw i8, ptr %0, i64 8
  %11 = load ptr, ptr %10, align 8
  %12 = tail call i32 (ptr, ...) @errmsg(ptr noundef nonnull @.str, ptr noundef %11) #15
  tail call void @errfinish(ptr noundef nonnull @.str.2, i32 noundef 3949, ptr noundef nonnull @__func__.hash_scalar) #15
  unreachable

13:                                               ; preds = %3
  %14 = getelementptr inbounds nuw i8, ptr %0, i64 24
  store ptr %1, ptr %14, align 8
  br label %15

15:                                               ; preds = %3, %13
  ret i32 0
}